; ModuleID = '56/1988.c'
source_filename = "56/1988.c"
target datalayout = "e-m:e-p270:32:32-p271:32:32-p272:64:64-i64:64-f80:128-n8:16:32:64-S128"
target triple = "x86_64-pc-linux-gnu"

@.str = private unnamed_addr constant [3 x i8] c"%c\00", align 1

; Function Attrs: noinline nounwind uwtable
define dso_local void @main() #0 {
  %1 = alloca i32, align 4
  %2 = alloca i32, align 4
  %3 = alloca [5 x i8], align 1
  %4 = alloca [5 x i8], align 1
  store i32 0, i32* %1, align 4
  br label %5

5:                                                ; preds = %21, %0
  %6 = load i32, i32* %1, align 4
  %7 = icmp slt i32 %6, 5
  br i1 %7, label %8, label %24

8:                                                ; preds = %5
  %9 = load i32, i32* %1, align 4
  %10 = sext i32 %9 to i64
  %11 = getelementptr inbounds [5 x i8], [5 x i8]* %3, i64 0, i64 %10
  %12 = call i32 (i8*, ...) @__isoc99_scanf(i8* getelementptr inbounds ([3 x i8], [3 x i8]* @.str, i64 0, i64 0), i8* %11)
  %13 = load i32, i32* %1, align 4
  %14 = sext i32 %13 to i64
  %15 = getelementptr inbounds [5 x i8], [5 x i8]* %3, i64 0, i64 %14
  %16 = load i8, i8* %15, align 1
  %17 = sext i8 %16 to i32
  %18 = icmp eq i32 %17, 10
  br i1 %18, label %19, label %20

19:                                               ; preds = %8
  br label %24

20:                                               ; preds = %8
  br label %21

21:                                               ; preds = %20
  %22 = load i32, i32* %1, align 4
  %23 = add nsw i32 %22, 1
  store i32 %23, i32* %1, align 4
  br label %5

24:                                               ; preds = %19, %5
  %25 = load i32, i32* %1, align 4
  store i32 %25, i32* %2, align 4
  store i32 0, i32* %1, align 4
  br label %26

26:                                               ; preds = %41, %24
  %27 = load i32, i32* %1, align 4
  %28 = load i32, i32* %2, align 4
  %29 = icmp slt i32 %27, %28
  br i1 %29, label %30, label %44

30:                                               ; preds = %26
  %31 = load i32, i32* %2, align 4
  %32 = load i32, i32* %1, align 4
  %33 = sub nsw i32 %31, %32
  %34 = sub nsw i32 %33, 1
  %35 = sext i32 %34 to i64
  %36 = getelementptr inbounds [5 x i8], [5 x i8]* %3, i64 0, i64 %35
  %37 = load i8, i8* %36, align 1
  %38 = load i32, i32* %1, align 4
  %39 = sext i32 %38 to i64
  %40 = getelementptr inbounds [5 x i8], [5 x i8]* %4, i64 0, i64 %39
  store i8 %37, i8* %40, align 1
  br label %41

41:                                               ; preds = %30
  %42 = load i32, i32* %1, align 4
  %43 = add nsw i32 %42, 1
  store i32 %43, i32* %1, align 4
  br label %26

44:                                               ; preds = %26
  store i32 0, i32* %1, align 4
  br label %45

45:                                               ; preds = %56, %44
  %46 = load i32, i32* %1, align 4
  %47 = load i32, i32* %2, align 4
  %48 = icmp slt i32 %46, %47
  br i1 %48, label %49, label %59

49:                                               ; preds = %45
  %50 = load i32, i32* %1, align 4
  %51 = sext i32 %50 to i64
  %52 = getelementptr inbounds [5 x i8], [5 x i8]* %4, i64 0, i64 %51
  %53 = load i8, i8* %52, align 1
  %54 = sext i8 %53 to i32
  %55 = call i32 (i8*, ...) @printf(i8* getelementptr inbounds ([3 x i8], [3 x i8]* @.str, i64 0, i64 0), i32 %54)
  br label %56

56:                                               ; preds = %49
  %57 = load i32, i32* %1, align 4
  %58 = add nsw i32 %57, 1
  store i32 %58, i32* %1, align 4
  br label %45

59:                                               ; preds = %45
  ret void
}

declare dso_local i32 @__isoc99_scanf(i8*, ...) #1

declare dso_local i32 @printf(i8*, ...) #1


!llvm.module.flags = !{!0}
!llvm.ident = !{!1}

!0 = !{i32 1, !"wchar_size", i32 4}
!1 = !{!"clang version 10.0.0-4ubuntu1 "}
